(dp1
S'username'
p2
(dp3
S'type'
p4
S'string'
p5
sS'sortable'
p6
I3
sS'sql'
p7
S'CHAR(512)'
p8
ssS'name'
p9
(dp10
g4
g5
sg6
I2
sg7
S'CHAR(512)'
p11
ssS'photo'
p12
(dp13
g4
S'upload'
p14
sg6
I4
sg7
S'CHAR(512)'
p15
ssS'id'
p16
(dp17
g4
g16
sg6
I1
sg7
S'INTEGER PRIMARY KEY AUTOINCREMENT'
p18
ssS'password'
p19
(dp20
g4
g19
sg6
I6
sg7
S'CHAR(512)'
p21
ssS'email'
p22
(dp23
g4
g5
sg6
I5
sg7
S'CHAR(512)'
p24
ssS'description'
p25
(dp26
g4
S'text'
p27
sg6
I7
sg7
S'TEXT'
p28
ss.