(dp1
S'member'
p2
(dp3
S'type'
p4
S'reference Group_Members'
p5
sS'sortable'
p6
I3
sS'sql'
p7
S'INTEGER REFERENCES Group_Members (id) ON DELETE CASCADE'
p8
ssS'comment'
p9
(dp10
g4
S'text'
p11
sg6
I4
sg7
S'TEXT'
p12
ssS'id'
p13
(dp14
g4
g13
sg6
I1
sg7
S'INTEGER PRIMARY KEY AUTOINCREMENT'
p15
ssS'event'
p16
(dp17
g4
S'reference Events'
p18
sg6
I2
sg7
S'INTEGER REFERENCES Events (id) ON DELETE CASCADE'
p19
ss.