(dp1
S'administrator'
p2
(dp3
S'type'
p4
S'boolean'
p5
sS'sortable'
p6
I4
sS'sql'
p7
S'CHAR(1)'
p8
ssS'attendee'
p9
(dp10
g4
S'reference Group_Members'
p11
sg6
I3
sg7
S'INTEGER REFERENCES Group_Members (id) ON DELETE CASCADE'
p12
ssS'id'
p13
(dp14
g4
g13
sg6
I1
sg7
S'INTEGER PRIMARY KEY AUTOINCREMENT'
p15
ssS'event'
p16
(dp17
g4
S'reference Events'
p18
sg6
I2
sg7
S'INTEGER REFERENCES Events (id) ON DELETE CASCADE'
p19
ss.