(dp1
S'member'
p2
(dp3
S'type'
p4
S'reference auth_user'
p5
sS'sortable'
p6
I3
sS'sql'
p7
S'INTEGER REFERENCES auth_user (id) ON DELETE CASCADE'
p8
ssS'rating'
p9
(dp10
g4
S'integer'
p11
sg6
I5
sg7
S'INTEGER'
p12
ssS'administrator'
p13
(dp14
g4
S'boolean'
p15
sg6
I4
sg7
S'CHAR(1)'
p16
ssS'group_id'
p17
(dp18
g4
S'reference Groups'
p19
sg6
I2
sg7
S'INTEGER REFERENCES Groups (id) ON DELETE CASCADE'
p20
ssS'id'
p21
(dp22
g4
S'id'
p23
sg6
I1
sg7
S'INTEGER PRIMARY KEY AUTOINCREMENT'
p24
ss.