(dp1
S'id'
p2
(dp3
S'type'
p4
S'id'
p5
sS'sortable'
p6
I1
sS'sql'
p7
S'INTEGER PRIMARY KEY AUTOINCREMENT'
p8
ssS'interest'
p9
(dp10
g4
S'reference Keywords'
p11
sg6
I3
sg7
S'INTEGER REFERENCES Keywords (id) ON DELETE CASCADE'
p12
ssS'user'
p13
(dp14
g4
S'reference auth_user'
p15
sg6
I2
sg7
S'INTEGER REFERENCES auth_user (id) ON DELETE CASCADE'
p16
ss.