(dp1
S'keyword_id'
p2
(dp3
S'type'
p4
S'reference Keywords'
p5
sS'sortable'
p6
I2
sS'sql'
p7
S'INTEGER REFERENCES Keywords (id) ON DELETE CASCADE'
p8
ssS'group_id'
p9
(dp10
g4
S'reference Groups'
p11
sg6
I3
sg7
S'INTEGER REFERENCES Groups (id) ON DELETE CASCADE'
p12
ssS'id'
p13
(dp14
g4
g13
sg6
I1
sg7
S'INTEGER PRIMARY KEY AUTOINCREMENT'
p15
ss.